; Function Attrs: nounwind uwtable
define void @validateMatchingQuregTypes(ptr noundef readonly byval(%struct.Qureg) align 8 captures(none) %0, ptr noundef readonly byval(%struct.Qureg) align 8 captures(none) %1, ptr noundef %2) local_unnamed_addr #3 {
  %4 = load i32, ptr %0, align 8, !tbaa !32
  %5 = load i32, ptr %1, align 8, !tbaa !32
  %.not = icmp eq i32 %4, %5
  br i1 %.not, label %QuESTAssert.exit, label %6

6:                                                ; preds = %3
  tail call void @invalidQuESTInputError(ptr noundef nonnull @.str.34, ptr noundef %2)
  br label %QuESTAssert.exit

QuESTAssert.exit:                                 ; preds = %3, %6
  ret void
}